; Function Attrs: nounwind uwtable
define float @dt_bauhaus_slider_get(ptr noundef %0) local_unnamed_addr #0 {
  %2 = load atomic i64, ptr @dt_bh_get_type.static_g_define_type_id seq_cst, align 8
  %.not.i.i = icmp eq i64 %2, 0
  br i1 %.not.i.i, label %3, label %DT_BAUHAUS_WIDGET.exit

3:                                                ; preds = %1
  %4 = tail call i32 @g_once_init_enter(ptr noundef nonnull @dt_bh_get_type.static_g_define_type_id) #19
  %.not4.i.i = icmp eq i32 %4, 0
  br i1 %.not4.i.i, label %DT_BAUHAUS_WIDGET.exit, label %5

5:                                                ; preds = %3
  %6 = tail call fastcc i64 @dt_bh_get_type_once()
  tail call void @g_once_init_leave(ptr noundef nonnull @dt_bh_get_type.static_g_define_type_id, i64 noundef %6) #19
  br label %DT_BAUHAUS_WIDGET.exit

DT_BAUHAUS_WIDGET.exit:                           ; preds = %1, %3, %5
  %7 = load i64, ptr @dt_bh_get_type.static_g_define_type_id, align 8, !tbaa !6
  %8 = tail call ptr @g_type_check_instance_cast(ptr noundef %0, i64 noundef %7) #19
  %9 = getelementptr inbounds nuw i8, ptr %8, i64 40
  %10 = load i32, ptr %9, align 8, !tbaa !105
  %.not = icmp eq i32 %10, 1
  br i1 %.not, label %11, label %28

11:                                               ; preds = %DT_BAUHAUS_WIDGET.exit
  %12 = getelementptr inbounds nuw i8, ptr %8, i64 428
  %13 = load float, ptr %12, align 4, !tbaa !120
  %14 = getelementptr inbounds nuw i8, ptr %8, i64 424
  %15 = load float, ptr %14, align 8, !tbaa !121
  %16 = fcmp reassoc nsz arcp contract afn oeq float %13, %15
  br i1 %16, label %28, label %17

17:                                               ; preds = %11
  %18 = getelementptr inbounds nuw i8, ptr %8, i64 408
  %19 = getelementptr inbounds nuw i8, ptr %8, i64 512
  %20 = load ptr, ptr %19, align 8, !tbaa !142
  %21 = load float, ptr %18, align 8, !tbaa !143
  %22 = tail call reassoc nsz arcp contract afn float %20(float noundef %21, i32 noundef 2) #19
  %23 = load float, ptr %14, align 8, !tbaa !121
  %24 = load float, ptr %12, align 4, !tbaa !120
  %25 = fsub reassoc nsz arcp contract afn float %24, %23
  %26 = fmul reassoc nsz arcp contract afn float %25, %22
  %27 = fadd reassoc nsz arcp contract afn float %26, %23
  br label %28

28:                                               ; preds = %17, %11, %DT_BAUHAUS_WIDGET.exit
  %.0 = phi nsz float [ -1.000000e+00, %DT_BAUHAUS_WIDGET.exit ], [ %27, %17 ], [ %13, %11 ]
  ret float %.0
}